target datalayout = "e-m:e-p270:32:32-p271:32:32-p272:64:64-i64:64-i128:128-f80:128-n8:16:32:64-S128"
target triple = "x86_64-pc-linux-gnu"

; Function Attrs: nounwind uwtable
define internal i32 @parse_string(ptr noundef %0, ptr noundef %1, ptr noundef %2, ptr noundef %3) #1 {
  %5 = alloca i32, align 4
  %6 = alloca ptr, align 8
  %7 = alloca ptr, align 8
  %8 = alloca ptr, align 8
  %9 = alloca ptr, align 8
  %10 = alloca ptr, align 8
  %11 = alloca ptr, align 8
  %12 = alloca i32, align 4
  store ptr %0, ptr %6, align 8, !tbaa !41
  store ptr %1, ptr %7, align 8, !tbaa !77
  store ptr %2, ptr %8, align 8, !tbaa !79
  store ptr %3, ptr %9, align 8, !tbaa !79
  call void @llvm.lifetime.start.p0(i64 8, ptr %10) #10
  call void @llvm.lifetime.start.p0(i64 8, ptr %11) #10
  %13 = load ptr, ptr %9, align 8, !tbaa !79
  %14 = call ptr @av_fast_realloc(ptr noundef null, ptr noundef %13, i64 noundef 4)
  store ptr %14, ptr %10, align 8, !tbaa !81
  %15 = load ptr, ptr %10, align 8, !tbaa !81
  %16 = icmp ne ptr %15, null
  br i1 %16, label %18, label %17

17:                                               ; preds = %4
  store i32 -12, ptr %5, align 4
  store i32 1, ptr %12, align 4
  br label %74

18:                                               ; preds = %4
  %19 = load ptr, ptr %10, align 8, !tbaa !81
  %20 = load ptr, ptr %7, align 8, !tbaa !77
  store ptr %19, ptr %20, align 8, !tbaa !81
  %21 = load ptr, ptr %6, align 8, !tbaa !41
  store ptr %21, ptr %11, align 8, !tbaa !41
  %22 = load ptr, ptr %11, align 8, !tbaa !41
  %23 = icmp ne ptr %22, null
  br i1 %23, label %25, label %24

24:                                               ; preds = %18
  store i32 -22, ptr %5, align 4
  store i32 1, ptr %12, align 4
  br label %74

25:                                               ; preds = %18
  br label %26

26:                                               ; preds = %71, %25
  %27 = load ptr, ptr %11, align 8, !tbaa !41
  %28 = call nsz double @av_strtod(ptr noundef %27, ptr noundef %11)
  %29 = fptrunc nsz double %28 to float
  %30 = load ptr, ptr %7, align 8, !tbaa !77
  %31 = load ptr, ptr %30, align 8, !tbaa !81
  %32 = load ptr, ptr %8, align 8, !tbaa !79
  %33 = load i32, ptr %32, align 4, !tbaa !33
  %34 = add nsw i32 %33, 1
  store i32 %34, ptr %32, align 4, !tbaa !33
  %35 = sext i32 %33 to i64
  %36 = getelementptr inbounds float, ptr %31, i64 %35
  store float %29, ptr %36, align 4, !tbaa !56
  %37 = load ptr, ptr %7, align 8, !tbaa !77
  %38 = load ptr, ptr %37, align 8, !tbaa !81
  %39 = load ptr, ptr %9, align 8, !tbaa !79
  %40 = load ptr, ptr %8, align 8, !tbaa !79
  %41 = load i32, ptr %40, align 4, !tbaa !33
  %42 = add nsw i32 %41, 2
  %43 = sext i32 %42 to i64
  %44 = mul i64 %43, 4
  %45 = call ptr @av_fast_realloc(ptr noundef %38, ptr noundef %39, i64 noundef %44)
  store ptr %45, ptr %10, align 8, !tbaa !81
  %46 = load ptr, ptr %10, align 8, !tbaa !81
  %47 = icmp ne ptr %46, null
  br i1 %47, label %49, label %48

48:                                               ; preds = %26
  store i32 -12, ptr %5, align 4
  store i32 1, ptr %12, align 4
  br label %74

49:                                               ; preds = %26
  %50 = load ptr, ptr %10, align 8, !tbaa !81
  %51 = load ptr, ptr %7, align 8, !tbaa !77
  store ptr %50, ptr %51, align 8, !tbaa !81
  %52 = load ptr, ptr %11, align 8, !tbaa !41
  %53 = icmp ne ptr %52, null
  br i1 %53, label %54, label %62

54:                                               ; preds = %49
  %55 = load ptr, ptr %11, align 8, !tbaa !41
  %56 = load i8, ptr %55, align 1, !tbaa !82
  %57 = sext i8 %56 to i32
  %58 = icmp ne i32 %57, 0
  br i1 %58, label %59, label %62

59:                                               ; preds = %54
  %60 = load ptr, ptr %11, align 8, !tbaa !41
  %61 = getelementptr inbounds nuw i8, ptr %60, i32 1
  store ptr %61, ptr %11, align 8, !tbaa !41
  br label %62

62:                                               ; preds = %59, %54, %49
  br label %63

63:                                               ; preds = %62
  %64 = load ptr, ptr %11, align 8, !tbaa !41
  %65 = icmp ne ptr %64, null
  br i1 %65, label %66, label %71

66:                                               ; preds = %63
  %67 = load ptr, ptr %11, align 8, !tbaa !41
  %68 = load i8, ptr %67, align 1, !tbaa !82
  %69 = sext i8 %68 to i32
  %70 = icmp ne i32 %69, 0
  br label %71

71:                                               ; preds = %66, %63
  %72 = phi i1 [ false, %63 ], [ %70, %66 ]
  br i1 %72, label %26, label %73, !llvm.loop !83

73:                                               ; preds = %71
  store i32 0, ptr %5, align 4
  store i32 1, ptr %12, align 4
  br label %74

74:                                               ; preds = %73, %48, %24, %17
  call void @llvm.lifetime.end.p0(i64 8, ptr %11) #10
  call void @llvm.lifetime.end.p0(i64 8, ptr %10) #10
  %75 = load i32, ptr %5, align 4
  ret i32 %75
}