; Function Attrs: nounwind uwtable
define internal fastcc range(i32 -22, 1) i32 @parse_string(ptr noundef %0, ptr noundef captures(none) %1, ptr noundef captures(none) %2, ptr noundef %3) unnamed_addr #1 {
  %5 = alloca ptr, align 8
  call void @llvm.lifetime.start.p0(i64 8, ptr nonnull %5) #10
  %6 = tail call ptr @av_fast_realloc(ptr noundef null, ptr noundef %3, i64 noundef 4) #10
  %.not = icmp eq ptr %6, null
  br i1 %.not, label %.critedge, label %7

7:                                                ; preds = %4
  store ptr %6, ptr %1, align 8, !tbaa !71
  store ptr %0, ptr %5, align 8, !tbaa !33
  %.not17 = icmp eq ptr %0, null
  br i1 %.not17, label %.critedge, label %.preheader

.preheader:                                       ; preds = %7, %24
  %8 = phi ptr [ %25, %24 ], [ %0, %7 ]
  %9 = call nsz double @av_strtod(ptr noundef nonnull %8, ptr noundef nonnull %5) #10
  %10 = fptrunc nsz double %9 to float
  %11 = load ptr, ptr %1, align 8, !tbaa !71
  %12 = load i32, ptr %2, align 4, !tbaa !27
  %13 = add nsw i32 %12, 1
  store i32 %13, ptr %2, align 4, !tbaa !27
  %14 = sext i32 %12 to i64
  %15 = getelementptr inbounds float, ptr %11, i64 %14
  store float %10, ptr %15, align 4, !tbaa !49
  %16 = add nsw i32 %12, 3
  %17 = sext i32 %16 to i64
  %18 = shl nsw i64 %17, 2
  %19 = call ptr @av_fast_realloc(ptr noundef %11, ptr noundef %3, i64 noundef %18) #10
  %.not18 = icmp eq ptr %19, null
  br i1 %.not18, label %.critedge, label %20

20:                                               ; preds = %.preheader
  store ptr %19, ptr %1, align 8, !tbaa !71
  %21 = load ptr, ptr %5, align 8, !tbaa !33
  %.not19 = icmp eq ptr %21, null
  br i1 %.not19, label %.critedge, label %22

22:                                               ; preds = %20
  %23 = load i8, ptr %21, align 1, !tbaa !60
  %.not20 = icmp eq i8 %23, 0
  br i1 %.not20, label %.critedge, label %24

24:                                               ; preds = %22
  %25 = getelementptr inbounds nuw i8, ptr %21, i64 1
  store ptr %25, ptr %5, align 8, !tbaa !33
  %.pr = load i8, ptr %25, align 1, !tbaa !60
  %.not22 = icmp eq i8 %.pr, 0
  br i1 %.not22, label %.critedge, label %.preheader, !llvm.loop !72

.critedge:                                        ; preds = %22, %20, %24, %.preheader, %7, %4
  %.0 = phi i32 [ -12, %4 ], [ -22, %7 ], [ 0, %22 ], [ 0, %20 ], [ 0, %24 ], [ -12, %.preheader ]
  call void @llvm.lifetime.end.p0(i64 8, ptr nonnull %5) #10
  ret i32 %.0
}